target datalayout = "e-m:e-p270:32:32-p271:32:32-p272:64:64-i64:64-i128:128-f80:128-n8:16:32:64-S128"
target triple = "x86_64-pc-linux-gnu"

%struct.Map_ManStruct_t_ = type { ptr, i32, ptr, i32, ptr, i32, i32, ptr, ptr, ptr, ptr, ptr, ptr, ptr, i32, i32, i32, i32, float, float, float, float, i32, i32, float, i32, i32, i32, i32, ptr, [6 x [2 x i32]], [10 x [32 x i32]], [32 x i32], [32 x i32], ptr, ptr, ptr, ptr, ptr, ptr, i32, i32, i32, i32, i32, i32, i64, i64, i64, i64, i64, i64, i64, i64, i64, i64, i64 }
%struct.Map_NodeStruct_t_ = type { ptr, ptr, i32, i32, i32, i32, [3 x i32], [3 x float], float, ptr, ptr, ptr, ptr, [2 x %struct.Map_TimeStruct_t_], [2 x %struct.Map_TimeStruct_t_], [2 x ptr], ptr, ptr, ptr }
%struct.Map_TimeStruct_t_ = type { float, float, float }
%struct.Map_NodeVecStruct_t_ = type { ptr, i32, i32 }
%struct.Map_SuperLibStruct_t_ = type { ptr, ptr, i32, i32, i32, i32, i32, ptr, ptr, ptr, [6 x [2 x i32]], [2 x i32], ptr, %struct.Map_TimeStruct_t_, float, float, ptr, ptr, ptr, ptr }

; Function Attrs: nounwind uwtable
define void @Map_TimePropagateRequired(ptr noundef %0) #0 {
  %2 = alloca ptr, align 8
  %3 = alloca ptr, align 8
  %4 = alloca ptr, align 8
  %5 = alloca ptr, align 8
  %6 = alloca i32, align 4
  %7 = alloca i32, align 4
  store ptr %0, ptr %2, align 8
  %8 = load ptr, ptr %2, align 8
  %9 = getelementptr inbounds %struct.Map_ManStruct_t_, ptr %8, i32 0, i32 8
  %10 = load ptr, ptr %9, align 8
  %11 = getelementptr inbounds %struct.Map_NodeVecStruct_t_, ptr %10, i32 0, i32 1
  %12 = load i32, ptr %11, align 8
  %13 = sub nsw i32 %12, 1
  store i32 %13, ptr %7, align 4
  br label %14

14:                                               ; preds = %282, %1
  %15 = load i32, ptr %7, align 4
  %16 = icmp sge i32 %15, 0
  br i1 %16, label %17, label %285

17:                                               ; preds = %14
  %18 = load ptr, ptr %2, align 8
  %19 = getelementptr inbounds %struct.Map_ManStruct_t_, ptr %18, i32 0, i32 8
  %20 = load ptr, ptr %19, align 8
  %21 = getelementptr inbounds %struct.Map_NodeVecStruct_t_, ptr %20, i32 0, i32 0
  %22 = load ptr, ptr %21, align 8
  %23 = load i32, ptr %7, align 4
  %24 = sext i32 %23 to i64
  %25 = getelementptr inbounds ptr, ptr %22, i64 %24
  %26 = load ptr, ptr %25, align 8
  store ptr %26, ptr %3, align 8
  %27 = load ptr, ptr %3, align 8
  %28 = getelementptr inbounds %struct.Map_NodeStruct_t_, ptr %27, i32 0, i32 6
  %29 = getelementptr inbounds [3 x i32], ptr %28, i64 0, i64 2
  %30 = load i32, ptr %29, align 8
  %31 = icmp eq i32 %30, 0
  br i1 %31, label %32, label %33

32:                                               ; preds = %17
  br label %282

33:                                               ; preds = %17
  %34 = load ptr, ptr %3, align 8
  %35 = call i32 @Map_NodeIsBuf(ptr noundef %34)
  %36 = icmp ne i32 %35, 0
  br i1 %36, label %37, label %77

37:                                               ; preds = %33
  %38 = load ptr, ptr %3, align 8
  %39 = getelementptr inbounds %struct.Map_NodeStruct_t_, ptr %38, i32 0, i32 9
  %40 = load ptr, ptr %39, align 8
  %41 = ptrtoint ptr %40 to i64
  %42 = and i64 %41, -2
  %43 = inttoptr i64 %42 to ptr
  %44 = getelementptr inbounds %struct.Map_NodeStruct_t_, ptr %43, i32 0, i32 14
  %45 = load ptr, ptr %3, align 8
  %46 = getelementptr inbounds %struct.Map_NodeStruct_t_, ptr %45, i32 0, i32 9
  %47 = load ptr, ptr %46, align 8
  %48 = ptrtoint ptr %47 to i64
  %49 = and i64 %48, 1
  %50 = trunc i64 %49 to i32
  %51 = sext i32 %50 to i64
  %52 = getelementptr inbounds [2 x %struct.Map_TimeStruct_t_], ptr %44, i64 0, i64 %51
  %53 = load ptr, ptr %3, align 8
  %54 = getelementptr inbounds %struct.Map_NodeStruct_t_, ptr %53, i32 0, i32 14
  %55 = getelementptr inbounds [2 x %struct.Map_TimeStruct_t_], ptr %54, i64 0, i64 0
  call void @llvm.memcpy.p0.p0.i64(ptr align 4 %52, ptr align 8 %55, i64 12, i1 false)
  %56 = load ptr, ptr %3, align 8
  %57 = getelementptr inbounds %struct.Map_NodeStruct_t_, ptr %56, i32 0, i32 9
  %58 = load ptr, ptr %57, align 8
  %59 = ptrtoint ptr %58 to i64
  %60 = and i64 %59, -2
  %61 = inttoptr i64 %60 to ptr
  %62 = getelementptr inbounds %struct.Map_NodeStruct_t_, ptr %61, i32 0, i32 14
  %63 = load ptr, ptr %3, align 8
  %64 = getelementptr inbounds %struct.Map_NodeStruct_t_, ptr %63, i32 0, i32 9
  %65 = load ptr, ptr %64, align 8
  %66 = ptrtoint ptr %65 to i64
  %67 = and i64 %66, 1
  %68 = trunc i64 %67 to i32
  %69 = icmp ne i32 %68, 0
  %70 = xor i1 %69, true
  %71 = zext i1 %70 to i32
  %72 = sext i32 %71 to i64
  %73 = getelementptr inbounds [2 x %struct.Map_TimeStruct_t_], ptr %62, i64 0, i64 %72
  %74 = load ptr, ptr %3, align 8
  %75 = getelementptr inbounds %struct.Map_NodeStruct_t_, ptr %74, i32 0, i32 14
  %76 = getelementptr inbounds [2 x %struct.Map_TimeStruct_t_], ptr %75, i64 0, i64 1
  call void @llvm.memcpy.p0.p0.i64(ptr align 4 %73, ptr align 4 %76, i64 12, i1 false)
  br label %282

77:                                               ; preds = %33
  %78 = load ptr, ptr %3, align 8
  %79 = getelementptr inbounds %struct.Map_NodeStruct_t_, ptr %78, i32 0, i32 15
  %80 = getelementptr inbounds [2 x ptr], ptr %79, i64 0, i64 0
  %81 = load ptr, ptr %80, align 8
  %82 = icmp eq ptr %81, null
  br i1 %82, label %89, label %83

83:                                               ; preds = %77
  %84 = load ptr, ptr %3, align 8
  %85 = getelementptr inbounds %struct.Map_NodeStruct_t_, ptr %84, i32 0, i32 15
  %86 = getelementptr inbounds [2 x ptr], ptr %85, i64 0, i64 1
  %87 = load ptr, ptr %86, align 8
  %88 = icmp eq ptr %87, null
  br i1 %88, label %89, label %186

89:                                               ; preds = %83, %77
  %90 = load ptr, ptr %3, align 8
  %91 = getelementptr inbounds %struct.Map_NodeStruct_t_, ptr %90, i32 0, i32 15
  %92 = getelementptr inbounds [2 x ptr], ptr %91, i64 0, i64 1
  %93 = load ptr, ptr %92, align 8
  %94 = icmp eq ptr %93, null
  %95 = zext i1 %94 to i32
  store i32 %95, ptr %6, align 4
  %96 = load ptr, ptr %3, align 8
  %97 = getelementptr inbounds %struct.Map_NodeStruct_t_, ptr %96, i32 0, i32 6
  %98 = load i32, ptr %6, align 4
  %99 = sext i32 %98 to i64
  %100 = getelementptr inbounds [3 x i32], ptr %97, i64 0, i64 %99
  %101 = load i32, ptr %100, align 4
  %102 = icmp sgt i32 %101, 0
  br i1 %102, label %103, label %185

103:                                              ; preds = %89
  %104 = load ptr, ptr %3, align 8
  %105 = getelementptr inbounds %struct.Map_NodeStruct_t_, ptr %104, i32 0, i32 14
  %106 = getelementptr inbounds [2 x %struct.Map_TimeStruct_t_], ptr %105, i64 0, i64 0
  %107 = load i32, ptr %6, align 4
  %108 = sext i32 %107 to i64
  %109 = getelementptr inbounds %struct.Map_TimeStruct_t_, ptr %106, i64 %108
  store ptr %109, ptr %5, align 8
  %110 = load ptr, ptr %3, align 8
  %111 = getelementptr inbounds %struct.Map_NodeStruct_t_, ptr %110, i32 0, i32 14
  %112 = getelementptr inbounds [2 x %struct.Map_TimeStruct_t_], ptr %111, i64 0, i64 0
  %113 = load i32, ptr %6, align 4
  %114 = icmp ne i32 %113, 0
  %115 = xor i1 %114, true
  %116 = zext i1 %115 to i32
  %117 = sext i32 %116 to i64
  %118 = getelementptr inbounds %struct.Map_TimeStruct_t_, ptr %112, i64 %117
  store ptr %118, ptr %4, align 8
  %119 = load ptr, ptr %4, align 8
  %120 = getelementptr inbounds %struct.Map_TimeStruct_t_, ptr %119, i32 0, i32 1
  %121 = load float, ptr %120, align 4
  %122 = load ptr, ptr %5, align 8
  %123 = getelementptr inbounds %struct.Map_TimeStruct_t_, ptr %122, i32 0, i32 0
  %124 = load float, ptr %123, align 4
  %125 = load ptr, ptr %2, align 8
  %126 = getelementptr inbounds %struct.Map_ManStruct_t_, ptr %125, i32 0, i32 29
  %127 = load ptr, ptr %126, align 8
  %128 = getelementptr inbounds %struct.Map_SuperLibStruct_t_, ptr %127, i32 0, i32 13
  %129 = getelementptr inbounds %struct.Map_TimeStruct_t_, ptr %128, i32 0, i32 0
  %130 = load float, ptr %129, align 8
  %131 = fsub float %124, %130
  %132 = fcmp olt float %121, %131
  br i1 %132, label %133, label %137

133:                                              ; preds = %103
  %134 = load ptr, ptr %4, align 8
  %135 = getelementptr inbounds %struct.Map_TimeStruct_t_, ptr %134, i32 0, i32 1
  %136 = load float, ptr %135, align 4
  br label %148

137:                                              ; preds = %103
  %138 = load ptr, ptr %5, align 8
  %139 = getelementptr inbounds %struct.Map_TimeStruct_t_, ptr %138, i32 0, i32 0
  %140 = load float, ptr %139, align 4
  %141 = load ptr, ptr %2, align 8
  %142 = getelementptr inbounds %struct.Map_ManStruct_t_, ptr %141, i32 0, i32 29
  %143 = load ptr, ptr %142, align 8
  %144 = getelementptr inbounds %struct.Map_SuperLibStruct_t_, ptr %143, i32 0, i32 13
  %145 = getelementptr inbounds %struct.Map_TimeStruct_t_, ptr %144, i32 0, i32 0
  %146 = load float, ptr %145, align 8
  %147 = fsub float %140, %146
  br label %148

148:                                              ; preds = %137, %133
  %149 = phi float [ %136, %133 ], [ %147, %137 ]
  %150 = load ptr, ptr %4, align 8
  %151 = getelementptr inbounds %struct.Map_TimeStruct_t_, ptr %150, i32 0, i32 1
  store float %149, ptr %151, align 4
  %152 = load ptr, ptr %4, align 8
  %153 = getelementptr inbounds %struct.Map_TimeStruct_t_, ptr %152, i32 0, i32 0
  %154 = load float, ptr %153, align 4
  %155 = load ptr, ptr %5, align 8
  %156 = getelementptr inbounds %struct.Map_TimeStruct_t_, ptr %155, i32 0, i32 1
  %157 = load float, ptr %156, align 4
  %158 = load ptr, ptr %2, align 8
  %159 = getelementptr inbounds %struct.Map_ManStruct_t_, ptr %158, i32 0, i32 29
  %160 = load ptr, ptr %159, align 8
  %161 = getelementptr inbounds %struct.Map_SuperLibStruct_t_, ptr %160, i32 0, i32 13
  %162 = getelementptr inbounds %struct.Map_TimeStruct_t_, ptr %161, i32 0, i32 1
  %163 = load float, ptr %162, align 4
  %164 = fsub float %157, %163
  %165 = fcmp olt float %154, %164
  br i1 %165, label %166, label %170

166:                                              ; preds = %148
  %167 = load ptr, ptr %4, align 8
  %168 = getelementptr inbounds %struct.Map_TimeStruct_t_, ptr %167, i32 0, i32 0
  %169 = load float, ptr %168, align 4
  br label %181

170:                                              ; preds = %148
  %171 = load ptr, ptr %5, align 8
  %172 = getelementptr inbounds %struct.Map_TimeStruct_t_, ptr %171, i32 0, i32 1
  %173 = load float, ptr %172, align 4
  %174 = load ptr, ptr %2, align 8
  %175 = getelementptr inbounds %struct.Map_ManStruct_t_, ptr %174, i32 0, i32 29
  %176 = load ptr, ptr %175, align 8
  %177 = getelementptr inbounds %struct.Map_SuperLibStruct_t_, ptr %176, i32 0, i32 13
  %178 = getelementptr inbounds %struct.Map_TimeStruct_t_, ptr %177, i32 0, i32 1
  %179 = load float, ptr %178, align 4
  %180 = fsub float %173, %179
  br label %181

181:                                              ; preds = %170, %166
  %182 = phi float [ %169, %166 ], [ %180, %170 ]
  %183 = load ptr, ptr %4, align 8
  %184 = getelementptr inbounds %struct.Map_TimeStruct_t_, ptr %183, i32 0, i32 0
  store float %182, ptr %184, align 4
  br label %185

185:                                              ; preds = %181, %89
  br label %186

186:                                              ; preds = %185, %83
  %187 = load ptr, ptr %3, align 8
  %188 = getelementptr inbounds %struct.Map_NodeStruct_t_, ptr %187, i32 0, i32 14
  %189 = getelementptr inbounds [2 x %struct.Map_TimeStruct_t_], ptr %188, i64 0, i64 0
  %190 = getelementptr inbounds %struct.Map_TimeStruct_t_, ptr %189, i32 0, i32 1
  %191 = load float, ptr %190, align 4
  %192 = load ptr, ptr %3, align 8
  %193 = getelementptr inbounds %struct.Map_NodeStruct_t_, ptr %192, i32 0, i32 14
  %194 = getelementptr inbounds [2 x %struct.Map_TimeStruct_t_], ptr %193, i64 0, i64 0
  %195 = getelementptr inbounds %struct.Map_TimeStruct_t_, ptr %194, i32 0, i32 0
  %196 = load float, ptr %195, align 8
  %197 = fcmp olt float %191, %196
  br i1 %197, label %198, label %204

198:                                              ; preds = %186
  %199 = load ptr, ptr %3, align 8
  %200 = getelementptr inbounds %struct.Map_NodeStruct_t_, ptr %199, i32 0, i32 14
  %201 = getelementptr inbounds [2 x %struct.Map_TimeStruct_t_], ptr %200, i64 0, i64 0
  %202 = getelementptr inbounds %struct.Map_TimeStruct_t_, ptr %201, i32 0, i32 1
  %203 = load float, ptr %202, align 4
  br label %210

204:                                              ; preds = %186
  %205 = load ptr, ptr %3, align 8
  %206 = getelementptr inbounds %struct.Map_NodeStruct_t_, ptr %205, i32 0, i32 14
  %207 = getelementptr inbounds [2 x %struct.Map_TimeStruct_t_], ptr %206, i64 0, i64 0
  %208 = getelementptr inbounds %struct.Map_TimeStruct_t_, ptr %207, i32 0, i32 0
  %209 = load float, ptr %208, align 8
  br label %210

210:                                              ; preds = %204, %198
  %211 = phi float [ %203, %198 ], [ %209, %204 ]
  %212 = load ptr, ptr %3, align 8
  %213 = getelementptr inbounds %struct.Map_NodeStruct_t_, ptr %212, i32 0, i32 14
  %214 = getelementptr inbounds [2 x %struct.Map_TimeStruct_t_], ptr %213, i64 0, i64 0
  %215 = getelementptr inbounds %struct.Map_TimeStruct_t_, ptr %214, i32 0, i32 2
  store float %211, ptr %215, align 8
  %216 = load ptr, ptr %3, align 8
  %217 = getelementptr inbounds %struct.Map_NodeStruct_t_, ptr %216, i32 0, i32 14
  %218 = getelementptr inbounds [2 x %struct.Map_TimeStruct_t_], ptr %217, i64 0, i64 1
  %219 = getelementptr inbounds %struct.Map_TimeStruct_t_, ptr %218, i32 0, i32 1
  %220 = load float, ptr %219, align 4
  %221 = load ptr, ptr %3, align 8
  %222 = getelementptr inbounds %struct.Map_NodeStruct_t_, ptr %221, i32 0, i32 14
  %223 = getelementptr inbounds [2 x %struct.Map_TimeStruct_t_], ptr %222, i64 0, i64 1
  %224 = getelementptr inbounds %struct.Map_TimeStruct_t_, ptr %223, i32 0, i32 0
  %225 = load float, ptr %224, align 4
  %226 = fcmp olt float %220, %225
  br i1 %226, label %227, label %233

227:                                              ; preds = %210
  %228 = load ptr, ptr %3, align 8
  %229 = getelementptr inbounds %struct.Map_NodeStruct_t_, ptr %228, i32 0, i32 14
  %230 = getelementptr inbounds [2 x %struct.Map_TimeStruct_t_], ptr %229, i64 0, i64 1
  %231 = getelementptr inbounds %struct.Map_TimeStruct_t_, ptr %230, i32 0, i32 1
  %232 = load float, ptr %231, align 4
  br label %239

233:                                              ; preds = %210
  %234 = load ptr, ptr %3, align 8
  %235 = getelementptr inbounds %struct.Map_NodeStruct_t_, ptr %234, i32 0, i32 14
  %236 = getelementptr inbounds [2 x %struct.Map_TimeStruct_t_], ptr %235, i64 0, i64 1
  %237 = getelementptr inbounds %struct.Map_TimeStruct_t_, ptr %236, i32 0, i32 0
  %238 = load float, ptr %237, align 4
  br label %239

239:                                              ; preds = %233, %227
  %240 = phi float [ %232, %227 ], [ %238, %233 ]
  %241 = load ptr, ptr %3, align 8
  %242 = getelementptr inbounds %struct.Map_NodeStruct_t_, ptr %241, i32 0, i32 14
  %243 = getelementptr inbounds [2 x %struct.Map_TimeStruct_t_], ptr %242, i64 0, i64 1
  %244 = getelementptr inbounds %struct.Map_TimeStruct_t_, ptr %243, i32 0, i32 2
  store float %240, ptr %244, align 4
  %245 = load ptr, ptr %3, align 8
  %246 = call i32 @Map_NodeIsAnd(ptr noundef %245)
  %247 = icmp ne i32 %246, 0
  br i1 %247, label %249, label %248

248:                                              ; preds = %239
  br label %282

249:                                              ; preds = %239
  %250 = load ptr, ptr %3, align 8
  %251 = getelementptr inbounds %struct.Map_NodeStruct_t_, ptr %250, i32 0, i32 15
  %252 = getelementptr inbounds [2 x ptr], ptr %251, i64 0, i64 0
  %253 = load ptr, ptr %252, align 8
  %254 = icmp ne ptr %253, null
  br i1 %254, label %255, label %265

255:                                              ; preds = %249
  %256 = load ptr, ptr %3, align 8
  %257 = getelementptr inbounds %struct.Map_NodeStruct_t_, ptr %256, i32 0, i32 14
  %258 = getelementptr inbounds [2 x %struct.Map_TimeStruct_t_], ptr %257, i64 0, i64 0
  %259 = getelementptr inbounds %struct.Map_TimeStruct_t_, ptr %258, i32 0, i32 2
  %260 = load float, ptr %259, align 8
  %261 = fcmp olt float %260, 0x47B9999980000000
  br i1 %261, label %262, label %265

262:                                              ; preds = %255
  %263 = load ptr, ptr %2, align 8
  %264 = load ptr, ptr %3, align 8
  call void @Map_TimePropagateRequiredPhase(ptr noundef %263, ptr noundef %264, i32 noundef 0)
  br label %265

265:                                              ; preds = %262, %255, %249
  %266 = load ptr, ptr %3, align 8
  %267 = getelementptr inbounds %struct.Map_NodeStruct_t_, ptr %266, i32 0, i32 15
  %268 = getelementptr inbounds [2 x ptr], ptr %267, i64 0, i64 1
  %269 = load ptr, ptr %268, align 8
  %270 = icmp ne ptr %269, null
  br i1 %270, label %271, label %281

271:                                              ; preds = %265
  %272 = load ptr, ptr %3, align 8
  %273 = getelementptr inbounds %struct.Map_NodeStruct_t_, ptr %272, i32 0, i32 14
  %274 = getelementptr inbounds [2 x %struct.Map_TimeStruct_t_], ptr %273, i64 0, i64 1
  %275 = getelementptr inbounds %struct.Map_TimeStruct_t_, ptr %274, i32 0, i32 2
  %276 = load float, ptr %275, align 4
  %277 = fcmp olt float %276, 0x47B9999980000000
  br i1 %277, label %278, label %281

278:                                              ; preds = %271
  %279 = load ptr, ptr %2, align 8
  %280 = load ptr, ptr %3, align 8
  call void @Map_TimePropagateRequiredPhase(ptr noundef %279, ptr noundef %280, i32 noundef 1)
  br label %281

281:                                              ; preds = %278, %271, %265
  br label %282

282:                                              ; preds = %281, %248, %37, %32
  %283 = load i32, ptr %7, align 4
  %284 = add nsw i32 %283, -1
  store i32 %284, ptr %7, align 4
  br label %14, !llvm.loop !9

285:                                              ; preds = %14
  ret void
}