; Function Attrs: nounwind uwtable
define void @Map_TimePropagateRequired(ptr noundef readonly captures(none) %0) local_unnamed_addr #0 {
  %2 = getelementptr inbounds nuw i8, ptr %0, i64 56
  %3 = load ptr, ptr %2, align 8
  %4 = getelementptr inbounds nuw i8, ptr %3, i64 8
  %5 = load i32, ptr %4, align 8
  %6 = icmp sgt i32 %5, 0
  br i1 %6, label %.lr.ph, label %._crit_edge

.lr.ph:                                           ; preds = %1
  %7 = getelementptr inbounds nuw i8, ptr %0, i64 168
  %8 = zext nneg i32 %5 to i64
  br label %9

9:                                                ; preds = %.lr.ph, %99
  %indvars.iv = phi i64 [ %8, %.lr.ph ], [ %indvars.iv.next, %99 ]
  %indvars.iv.next = add nsw i64 %indvars.iv, -1
  %10 = load ptr, ptr %2, align 8
  %11 = load ptr, ptr %10, align 8
  %12 = getelementptr inbounds nuw ptr, ptr %11, i64 %indvars.iv.next
  %13 = load ptr, ptr %12, align 8
  %14 = getelementptr inbounds nuw i8, ptr %13, i64 32
  %15 = getelementptr inbounds nuw i8, ptr %13, i64 40
  %16 = load i32, ptr %15, align 8
  %17 = icmp eq i32 %16, 0
  br i1 %17, label %99, label %18

18:                                               ; preds = %9
  %19 = tail call i32 @Map_NodeIsBuf(ptr noundef nonnull %13) #6
  %.not = icmp eq i32 %19, 0
  br i1 %.not, label %39, label %20

20:                                               ; preds = %18
  %21 = getelementptr inbounds nuw i8, ptr %13, i64 64
  %22 = load ptr, ptr %21, align 8
  %23 = ptrtoint ptr %22 to i64
  %24 = and i64 %23, -2
  %25 = inttoptr i64 %24 to ptr
  %26 = getelementptr inbounds nuw i8, ptr %25, i64 120
  %27 = and i64 %23, 1
  %28 = getelementptr inbounds nuw [2 x %struct.Map_TimeStruct_t_], ptr %26, i64 0, i64 %27
  %29 = getelementptr inbounds nuw i8, ptr %13, i64 120
  tail call void @llvm.memcpy.p0.p0.i64(ptr noundef nonnull align 4 dereferenceable(12) %28, ptr noundef nonnull align 8 dereferenceable(12) %29, i64 12, i1 false)
  %30 = load ptr, ptr %21, align 8
  %31 = ptrtoint ptr %30 to i64
  %32 = and i64 %31, -2
  %33 = inttoptr i64 %32 to ptr
  %34 = getelementptr inbounds nuw i8, ptr %33, i64 120
  %35 = and i64 %31, 1
  %36 = xor i64 %35, 1
  %37 = getelementptr inbounds nuw [2 x %struct.Map_TimeStruct_t_], ptr %34, i64 0, i64 %36
  %38 = getelementptr inbounds nuw i8, ptr %13, i64 132
  tail call void @llvm.memcpy.p0.p0.i64(ptr noundef nonnull align 4 dereferenceable(12) %37, ptr noundef nonnull align 4 dereferenceable(12) %38, i64 12, i1 false)
  br label %99

39:                                               ; preds = %18
  %40 = getelementptr inbounds nuw i8, ptr %13, i64 144
  %41 = load ptr, ptr %40, align 8
  %42 = icmp eq ptr %41, null
  %.phi.trans.insert = getelementptr inbounds nuw i8, ptr %13, i64 152
  %.pre = load ptr, ptr %.phi.trans.insert, align 8
  %43 = icmp eq ptr %.pre, null
  %brmerge = select i1 %42, i1 true, i1 %43
  %not. = xor i1 %42, true
  %.mux = select i1 %not., i1 true, i1 %43
  br i1 %brmerge, label %._crit_edge70, label %71

._crit_edge70:                                    ; preds = %39
  %44 = zext i1 %.mux to i64
  %45 = getelementptr inbounds nuw [3 x i32], ptr %14, i64 0, i64 %44
  %46 = load i32, ptr %45, align 4
  %47 = icmp sgt i32 %46, 0
  br i1 %47, label %48, label %71

48:                                               ; preds = %._crit_edge70
  %49 = getelementptr inbounds nuw i8, ptr %13, i64 120
  %50 = getelementptr inbounds nuw %struct.Map_TimeStruct_t_, ptr %49, i64 %44
  %51 = xor i1 %.mux, true
  %52 = zext i1 %51 to i64
  %53 = getelementptr inbounds nuw %struct.Map_TimeStruct_t_, ptr %49, i64 %52
  %54 = getelementptr inbounds nuw i8, ptr %53, i64 4
  %55 = load float, ptr %54, align 4
  %56 = load float, ptr %50, align 4
  %57 = load ptr, ptr %7, align 8
  %58 = getelementptr inbounds nuw i8, ptr %57, i64 128
  %59 = load float, ptr %58, align 8
  %60 = fsub float %56, %59
  %61 = fcmp olt float %55, %60
  %. = select i1 %61, float %55, float %60
  store float %., ptr %54, align 4
  %62 = load float, ptr %53, align 4
  %63 = getelementptr inbounds nuw i8, ptr %50, i64 4
  %64 = load float, ptr %63, align 4
  %65 = load ptr, ptr %7, align 8
  %66 = getelementptr inbounds nuw i8, ptr %65, i64 132
  %67 = load float, ptr %66, align 4
  %68 = fsub float %64, %67
  %69 = fcmp olt float %62, %68
  %70 = select i1 %69, float %62, float %68
  store float %70, ptr %53, align 4
  br label %71

71:                                               ; preds = %39, %._crit_edge70, %48
  %72 = getelementptr inbounds nuw i8, ptr %13, i64 120
  %73 = getelementptr inbounds nuw i8, ptr %13, i64 124
  %74 = load float, ptr %73, align 4
  %75 = load float, ptr %72, align 8
  %76 = fcmp olt float %74, %75
  %.66 = select i1 %76, float %74, float %75
  %77 = getelementptr inbounds nuw i8, ptr %13, i64 128
  store float %.66, ptr %77, align 8
  %78 = getelementptr inbounds nuw i8, ptr %13, i64 132
  %79 = getelementptr inbounds nuw i8, ptr %13, i64 136
  %80 = load float, ptr %79, align 4
  %81 = load float, ptr %78, align 4
  %82 = fcmp olt float %80, %81
  %83 = select i1 %82, float %80, float %81
  %84 = getelementptr inbounds nuw i8, ptr %13, i64 140
  store float %83, ptr %84, align 4
  %85 = tail call i32 @Map_NodeIsAnd(ptr noundef nonnull %13) #6
  %.not62 = icmp eq i32 %85, 0
  br i1 %.not62, label %99, label %86

86:                                               ; preds = %71
  %87 = load ptr, ptr %40, align 8
  %.not63 = icmp eq ptr %87, null
  br i1 %.not63, label %92, label %88

88:                                               ; preds = %86
  %89 = load float, ptr %77, align 8
  %90 = fcmp olt float %89, 0x47B9999980000000
  br i1 %90, label %91, label %92

91:                                               ; preds = %88
  tail call void @Map_TimePropagateRequiredPhase(ptr nonnull poison, ptr noundef nonnull %13, i32 noundef 0)
  br label %92

92:                                               ; preds = %91, %88, %86
  %93 = getelementptr inbounds nuw i8, ptr %13, i64 152
  %94 = load ptr, ptr %93, align 8
  %.not64 = icmp eq ptr %94, null
  br i1 %.not64, label %99, label %95

95:                                               ; preds = %92
  %96 = load float, ptr %84, align 4
  %97 = fcmp olt float %96, 0x47B9999980000000
  br i1 %97, label %98, label %99

98:                                               ; preds = %95
  tail call void @Map_TimePropagateRequiredPhase(ptr nonnull poison, ptr noundef nonnull %13, i32 noundef 1)
  br label %99

99:                                               ; preds = %92, %95, %98, %71, %9, %20
  %100 = icmp samesign ugt i64 %indvars.iv, 1
  br i1 %100, label %9, label %._crit_edge, !llvm.loop !9

._crit_edge:                                      ; preds = %99, %1
  ret void
}